; Function Attrs: nounwind sspstrong uwtable
define internal range(i64 0, 21) i64 @addrinfo_ipv4_loopback_p(i64 noundef %0) #0 {
  %2 = tail call ptr @rb_check_typeddata(i64 noundef %0, ptr noundef nonnull @addrinfo_type) #21
  %.not.i.i = icmp eq ptr %2, null
  br i1 %.not.i.i, label %3, label %get_addrinfo.exit.i

3:                                                ; preds = %1
  %4 = load i64, ptr @rb_eTypeError, align 8, !tbaa !35
  tail call void (i64, ptr, ...) @rb_raise(i64 noundef %4, ptr noundef nonnull @.str.101) #23
  unreachable

get_addrinfo.exit.i:                              ; preds = %1
  %5 = getelementptr inbounds nuw i8, ptr %2, i64 28
  %6 = load i32, ptr %5, align 4, !tbaa !118
  %7 = icmp ugt i32 %6, 1
  br i1 %7, label %ai_get_afamily.exit.i, label %13

ai_get_afamily.exit.i:                            ; preds = %get_addrinfo.exit.i
  %8 = getelementptr inbounds nuw i8, ptr %2, i64 32
  %9 = load i16, ptr %8, align 2, !tbaa !91
  %.not.i = icmp eq i16 %9, 2
  br i1 %.not.i, label %extract_in_addr.exit, label %13

extract_in_addr.exit:                             ; preds = %ai_get_afamily.exit.i
  %10 = getelementptr inbounds nuw i8, ptr %2, i64 36
  %11 = load i32, ptr %10, align 4, !tbaa !49
  %.mask = and i32 %11, 255
  %12 = icmp eq i32 %.mask, 127
  %. = select i1 %12, i64 20, i64 0
  br label %13

13:                                               ; preds = %get_addrinfo.exit.i, %ai_get_afamily.exit.i, %extract_in_addr.exit
  %14 = phi i64 [ %., %extract_in_addr.exit ], [ 0, %ai_get_afamily.exit.i ], [ 0, %get_addrinfo.exit.i ]
  ret i64 %14
}